; ModuleID = 'source-C-CXX/24/921.cpp'
source_filename = "source-C-CXX/24/921.cpp"
target datalayout = "e-m:e-p270:32:32-p271:32:32-p272:64:64-i64:64-f80:128-n8:16:32:64-S128"
target triple = "x86_64-pc-linux-gnu"

%"class.std::ios_base::Init" = type { i8 }
%"class.std::basic_istream" = type { i32 (...)**, i64, %"class.std::basic_ios" }
%"class.std::basic_ios" = type { %"class.std::ios_base", %"class.std::basic_ostream"*, i8, i8, %"class.std::basic_streambuf"*, %"class.std::ctype"*, %"class.std::num_put"*, %"class.std::num_get"* }
%"class.std::ios_base" = type { i32 (...)**, i64, i64, i32, i32, i32, %"struct.std::ios_base::_Callback_list"*, %"struct.std::ios_base::_Words", [8 x %"struct.std::ios_base::_Words"], i32, %"struct.std::ios_base::_Words"*, %"class.std::locale" }
%"struct.std::ios_base::_Callback_list" = type { %"struct.std::ios_base::_Callback_list"*, void (i32, %"class.std::ios_base"*, i32)*, i32, i32 }
%"struct.std::ios_base::_Words" = type { i8*, i64 }
%"class.std::locale" = type { %"class.std::locale::_Impl"* }
%"class.std::locale::_Impl" = type { i32, %"class.std::locale::facet"**, i64, %"class.std::locale::facet"**, i8** }
%"class.std::locale::facet" = type <{ i32 (...)**, i32, [4 x i8] }>
%"class.std::basic_ostream" = type { i32 (...)**, %"class.std::basic_ios" }
%"class.std::basic_streambuf" = type { i32 (...)**, i8*, i8*, i8*, i8*, i8*, i8*, %"class.std::locale" }
%"class.std::ctype" = type <{ %"class.std::locale::facet.base", [4 x i8], %struct.__locale_struct*, i8, [7 x i8], i32*, i32*, i16*, i8, [256 x i8], [256 x i8], i8, [6 x i8] }>
%"class.std::locale::facet.base" = type <{ i32 (...)**, i32 }>
%struct.__locale_struct = type { [13 x %struct.__locale_data*], i16*, i32*, i32*, [13 x i8*] }
%struct.__locale_data = type opaque
%"class.std::num_put" = type { %"class.std::locale::facet.base", [4 x i8] }
%"class.std::num_get" = type { %"class.std::locale::facet.base", [4 x i8] }

@_ZStL8__ioinit = internal global %"class.std::ios_base::Init" zeroinitializer, align 1
@__dso_handle = external hidden global i8
@_ZSt3cin = external global %"class.std::basic_istream", align 8
@_ZSt4cout = external global %"class.std::basic_ostream", align 8
@llvm.global_ctors = appending global [1 x { i32, void ()*, i8* }] [{ i32, void ()*, i8* } { i32 65535, void ()* @_GLOBAL__sub_I_921.cpp, i8* null }]

declare void @_ZNSt8ios_base4InitC1Ev(%"class.std::ios_base::Init"* nonnull align 1 dereferenceable(1)) unnamed_addr #0

; Function Attrs: nounwind
declare void @_ZNSt8ios_base4InitD1Ev(%"class.std::ios_base::Init"* nonnull align 1 dereferenceable(1)) unnamed_addr #1

; Function Attrs: nofree nounwind
declare i32 @__cxa_atexit(void (i8*)*, i8*, i8*) local_unnamed_addr #2

; Function Attrs: mustprogress norecurse sspstrong uwtable
define dso_local i32 @main() local_unnamed_addr #3 {
  %1 = alloca [31 x i32], align 16
  %2 = alloca i32, align 4
  %3 = bitcast [31 x i32]* %1 to i8*
  call void @llvm.lifetime.start.p0i8(i64 124, i8* nonnull %3) #8
  call void @llvm.memset.p0i8.i64(i8* noundef nonnull align 16 dereferenceable(124) %3, i8 0, i64 124, i1 false)
  %4 = bitcast i32* %2 to i8*
  call void @llvm.lifetime.start.p0i8(i64 4, i8* nonnull %4) #8
  %5 = call nonnull align 8 dereferenceable(16) %"class.std::basic_istream"* @_ZNSirsERi(%"class.std::basic_istream"* nonnull align 8 dereferenceable(16) @_ZSt3cin, i32* nonnull align 4 dereferenceable(4) %2)
  %6 = getelementptr inbounds [31 x i32], [31 x i32]* %1, i64 0, i64 30
  store i32 1, i32* %6, align 8, !tbaa !5
  %7 = load i32, i32* %2, align 4, !tbaa !5
  %8 = icmp sgt i32 %7, 0
  br i1 %8, label %10, label %9

9:                                                ; preds = %13, %0
  br label %27

10:                                               ; preds = %0, %13
  %11 = phi i32 [ %24, %13 ], [ 0, %0 ]
  %12 = phi i32 [ %14, %13 ], [ 0, %0 ]
  br label %16

13:                                               ; preds = %16
  %14 = add nuw nsw i32 %12, 1
  %15 = icmp eq i32 %14, %7
  br i1 %15, label %9, label %10, !llvm.loop !9

16:                                               ; preds = %10, %16
  %17 = phi i64 [ 30, %10 ], [ %25, %16 ]
  %18 = phi i32 [ %11, %10 ], [ %24, %16 ]
  %19 = getelementptr inbounds [31 x i32], [31 x i32]* %1, i64 0, i64 %17
  %20 = load i32, i32* %19, align 4, !tbaa !5
  %21 = shl nsw i32 %20, 1
  %22 = add nsw i32 %21, %18
  %23 = srem i32 %22, 10
  store i32 %23, i32* %19, align 4, !tbaa !5
  %24 = sdiv i32 %22, 10
  %25 = add nsw i64 %17, -1
  %26 = icmp eq i64 %17, 0
  br i1 %26, label %13, label %16, !llvm.loop !11

27:                                               ; preds = %9, %27
  %28 = phi i64 [ %32, %27 ], [ 0, %9 ]
  %29 = getelementptr inbounds [31 x i32], [31 x i32]* %1, i64 0, i64 %28
  %30 = load i32, i32* %29, align 4, !tbaa !5
  %31 = icmp eq i32 %30, 0
  %32 = add nuw i64 %28, 1
  br i1 %31, label %27, label %33, !llvm.loop !12

33:                                               ; preds = %27
  %34 = trunc i64 %28 to i32
  %35 = icmp ult i32 %34, 31
  br i1 %35, label %36, label %46

36:                                               ; preds = %33
  %37 = and i64 %28, 4294967295
  br label %38

38:                                               ; preds = %36, %38
  %39 = phi i64 [ %37, %36 ], [ %43, %38 ]
  %40 = getelementptr inbounds [31 x i32], [31 x i32]* %1, i64 0, i64 %39
  %41 = load i32, i32* %40, align 4, !tbaa !5
  %42 = call nonnull align 8 dereferenceable(8) %"class.std::basic_ostream"* @_ZNSolsEi(%"class.std::basic_ostream"* nonnull align 8 dereferenceable(8) @_ZSt4cout, i32 %41)
  %43 = add nuw nsw i64 %39, 1
  %44 = trunc i64 %43 to i32
  %45 = icmp eq i32 %44, 31
  br i1 %45, label %46, label %38, !llvm.loop !13

46:                                               ; preds = %38, %33
  %47 = load i8*, i8** bitcast (%"class.std::basic_ostream"* @_ZSt4cout to i8**), align 8, !tbaa !14
  %48 = getelementptr i8, i8* %47, i64 -24
  %49 = bitcast i8* %48 to i64*
  %50 = load i64, i64* %49, align 8
  %51 = add nsw i64 %50, 240
  %52 = getelementptr inbounds i8, i8* bitcast (%"class.std::basic_ostream"* @_ZSt4cout to i8*), i64 %51
  %53 = bitcast i8* %52 to %"class.std::ctype"**
  %54 = load %"class.std::ctype"*, %"class.std::ctype"** %53, align 8, !tbaa !16
  %55 = icmp eq %"class.std::ctype"* %54, null
  br i1 %55, label %56, label %57

56:                                               ; preds = %46
  call void @_ZSt16__throw_bad_castv() #9
  unreachable

57:                                               ; preds = %46
  %58 = getelementptr inbounds %"class.std::ctype", %"class.std::ctype"* %54, i64 0, i32 8
  %59 = load i8, i8* %58, align 8, !tbaa !20
  %60 = icmp eq i8 %59, 0
  br i1 %60, label %64, label %61

61:                                               ; preds = %57
  %62 = getelementptr inbounds %"class.std::ctype", %"class.std::ctype"* %54, i64 0, i32 9, i64 10
  %63 = load i8, i8* %62, align 1, !tbaa !22
  br label %70

64:                                               ; preds = %57
  call void @_ZNKSt5ctypeIcE13_M_widen_initEv(%"class.std::ctype"* nonnull align 8 dereferenceable(570) %54)
  %65 = bitcast %"class.std::ctype"* %54 to i8 (%"class.std::ctype"*, i8)***
  %66 = load i8 (%"class.std::ctype"*, i8)**, i8 (%"class.std::ctype"*, i8)*** %65, align 8, !tbaa !14
  %67 = getelementptr inbounds i8 (%"class.std::ctype"*, i8)*, i8 (%"class.std::ctype"*, i8)** %66, i64 6
  %68 = load i8 (%"class.std::ctype"*, i8)*, i8 (%"class.std::ctype"*, i8)** %67, align 8
  %69 = call signext i8 %68(%"class.std::ctype"* nonnull align 8 dereferenceable(570) %54, i8 signext 10)
  br label %70

70:                                               ; preds = %61, %64
  %71 = phi i8 [ %63, %61 ], [ %69, %64 ]
  %72 = call nonnull align 8 dereferenceable(8) %"class.std::basic_ostream"* @_ZNSo3putEc(%"class.std::basic_ostream"* nonnull align 8 dereferenceable(8) @_ZSt4cout, i8 signext %71)
  %73 = call nonnull align 8 dereferenceable(8) %"class.std::basic_ostream"* @_ZNSo5flushEv(%"class.std::basic_ostream"* nonnull align 8 dereferenceable(8) %72)
  call void @llvm.lifetime.end.p0i8(i64 4, i8* nonnull %4) #8
  call void @llvm.lifetime.end.p0i8(i64 124, i8* nonnull %3) #8
  ret i32 0
}

; Function Attrs: argmemonly mustprogress nofree nosync nounwind willreturn
declare void @llvm.lifetime.start.p0i8(i64 immarg, i8* nocapture) #4

; Function Attrs: argmemonly mustprogress nofree nounwind willreturn writeonly
declare void @llvm.memset.p0i8.i64(i8* nocapture writeonly, i8, i64, i1 immarg) #5

declare nonnull align 8 dereferenceable(16) %"class.std::basic_istream"* @_ZNSirsERi(%"class.std::basic_istream"* nonnull align 8 dereferenceable(16), i32* nonnull align 4 dereferenceable(4)) local_unnamed_addr #0

; Function Attrs: argmemonly mustprogress nofree nosync nounwind willreturn
declare void @llvm.lifetime.end.p0i8(i64 immarg, i8* nocapture) #4

declare nonnull align 8 dereferenceable(8) %"class.std::basic_ostream"* @_ZNSolsEi(%"class.std::basic_ostream"* nonnull align 8 dereferenceable(8), i32) local_unnamed_addr #0

declare nonnull align 8 dereferenceable(8) %"class.std::basic_ostream"* @_ZNSo3putEc(%"class.std::basic_ostream"* nonnull align 8 dereferenceable(8), i8 signext) local_unnamed_addr #0

declare nonnull align 8 dereferenceable(8) %"class.std::basic_ostream"* @_ZNSo5flushEv(%"class.std::basic_ostream"* nonnull align 8 dereferenceable(8)) local_unnamed_addr #0

; Function Attrs: noreturn
declare void @_ZSt16__throw_bad_castv() local_unnamed_addr #6

declare void @_ZNKSt5ctypeIcE13_M_widen_initEv(%"class.std::ctype"* nonnull align 8 dereferenceable(570)) local_unnamed_addr #0

; Function Attrs: sspstrong uwtable
define internal void @_GLOBAL__sub_I_921.cpp() #7 section ".text.startup" {
  tail call void @_ZNSt8ios_base4InitC1Ev(%"class.std::ios_base::Init"* nonnull align 1 dereferenceable(1) @_ZStL8__ioinit)
  %1 = tail call i32 @__cxa_atexit(void (i8*)* bitcast (void (%"class.std::ios_base::Init"*)* @_ZNSt8ios_base4InitD1Ev to void (i8*)*), i8* getelementptr inbounds (%"class.std::ios_base::Init", %"class.std::ios_base::Init"* @_ZStL8__ioinit, i64 0, i32 0), i8* nonnull @__dso_handle) #8
  ret void
}


!llvm.module.flags = !{!0, !1, !2, !3}
!llvm.ident = !{!4}

!0 = !{i32 1, !"wchar_size", i32 4}
!1 = !{i32 7, !"PIC Level", i32 2}
!2 = !{i32 7, !"PIE Level", i32 2}
!3 = !{i32 7, !"uwtable", i32 1}
!4 = !{!"clang version 13.0.0"}
!5 = !{!6, !6, i64 0}
!6 = !{!"int", !7, i64 0}
!7 = !{!"omnipotent char", !8, i64 0}
!8 = !{!"Simple C++ TBAA"}
!9 = distinct !{!9, !10}
!10 = !{!"llvm.loop.mustprogress"}
!11 = distinct !{!11, !10}
!12 = distinct !{!12, !10}
!13 = distinct !{!13, !10}
!14 = !{!15, !15, i64 0}
!15 = !{!"vtable pointer", !8, i64 0}
!16 = !{!17, !18, i64 240}
!17 = !{!"_ZTSSt9basic_iosIcSt11char_traitsIcEE", !18, i64 216, !7, i64 224, !19, i64 225, !18, i64 232, !18, i64 240, !18, i64 248, !18, i64 256}
!18 = !{!"any pointer", !7, i64 0}
!19 = !{!"bool", !7, i64 0}
!20 = !{!21, !7, i64 56}
!21 = !{!"_ZTSSt5ctypeIcE", !18, i64 16, !19, i64 24, !18, i64 32, !18, i64 40, !18, i64 48, !7, i64 56, !7, i64 57, !7, i64 313, !7, i64 569}
!22 = !{!7, !7, i64 0}
